(dp0
S'ref_point'
p1
(dp2
sS'rw_dict'
p3
(dp4
S'ctGRe_0p_ctGIm_0p_ctWRe_0p_ctWIm_0p_ctBRe_1p_ctBIm_0p_cHtbRe_1p_cHtbIm_0p_cHt_0p'
p5
I42
sS'ctGRe_0p_ctGIm_0p_ctWRe_0p_ctWIm_2p_ctBRe_0p_ctBIm_0p_cHtbRe_0p_cHtbIm_0p_cHt_0p'
p6
I34
sS'ctGRe_0p_ctGIm_1p_ctWRe_0p_ctWIm_0p_ctBRe_0p_ctBIm_0p_cHtbRe_0p_cHtbIm_0p_cHt_0p'
p7
I2
sS'ctGRe_2p_ctGIm_0p_ctWRe_0p_ctWIm_0p_ctBRe_0p_ctBIm_0p_cHtbRe_0p_cHtbIm_0p_cHt_0p'
p8
I10
sS'ctGRe_0p_ctGIm_0p_ctWRe_1p_ctWIm_0p_ctBRe_1p_ctBIm_0p_cHtbRe_0p_cHtbIm_0p_cHt_0p'
p9
I29
sS'ctGRe_0p_ctGIm_0p_ctWRe_0p_ctWIm_0p_ctBRe_1p_ctBIm_1p_cHtbRe_0p_cHtbIm_0p_cHt_0p'
p10
I41
sS'ctGRe_1p_ctGIm_0p_ctWRe_0p_ctWIm_0p_ctBRe_0p_ctBIm_0p_cHtbRe_0p_cHtbIm_0p_cHt_0p'
p11
I1
sS'ctGRe_0p_ctGIm_0p_ctWRe_1p_ctWIm_0p_ctBRe_0p_ctBIm_0p_cHtbRe_0p_cHtbIm_0p_cHt_1p'
p12
I33
sS'ctGRe_0p_ctGIm_0p_ctWRe_1p_ctWIm_0p_ctBRe_0p_ctBIm_1p_cHtbRe_0p_cHtbIm_0p_cHt_0p'
p13
I30
sS'ctGRe_0p_ctGIm_0p_ctWRe_0p_ctWIm_0p_ctBRe_0p_ctBIm_0p_cHtbRe_2p_cHtbIm_0p_cHt_0p'
p14
I49
sS'ctGRe_0p_ctGIm_0p_ctWRe_0p_ctWIm_0p_ctBRe_0p_ctBIm_2p_cHtbRe_0p_cHtbIm_0p_cHt_0p'
p15
I45
sS'ctGRe_1p_ctGIm_0p_ctWRe_1p_ctWIm_0p_ctBRe_0p_ctBIm_0p_cHtbRe_0p_cHtbIm_0p_cHt_0p'
p16
I12
sS'ctGRe_0p_ctGIm_0p_ctWRe_0p_ctWIm_0p_ctBRe_0p_ctBIm_1p_cHtbRe_0p_cHtbIm_0p_cHt_0p'
p17
I6
sS'ctGRe_0p_ctGIm_0p_ctWRe_0p_ctWIm_0p_ctBRe_0p_ctBIm_1p_cHtbRe_1p_cHtbIm_0p_cHt_0p'
p18
I46
sS'ctGRe_0p_ctGIm_0p_ctWRe_0p_ctWIm_0p_ctBRe_0p_ctBIm_0p_cHtbRe_0p_cHtbIm_0p_cHt_0p'
p19
I0
sS'ctGRe_0p_ctGIm_1p_ctWRe_0p_ctWIm_0p_ctBRe_1p_ctBIm_0p_cHtbRe_0p_cHtbIm_0p_cHt_0p'
p20
I22
sS'ctGRe_1p_ctGIm_1p_ctWRe_0p_ctWIm_0p_ctBRe_0p_ctBIm_0p_cHtbRe_0p_cHtbIm_0p_cHt_0p'
p21
I11
sS'ctGRe_0p_ctGIm_0p_ctWRe_0p_ctWIm_0p_ctBRe_0p_ctBIm_0p_cHtbRe_0p_cHtbIm_0p_cHt_2p'
p22
I54
sS'ctGRe_0p_ctGIm_1p_ctWRe_1p_ctWIm_0p_ctBRe_0p_ctBIm_0p_cHtbRe_0p_cHtbIm_0p_cHt_0p'
p23
I20
sS'ctGRe_0p_ctGIm_0p_ctWRe_0p_ctWIm_0p_ctBRe_0p_ctBIm_0p_cHtbRe_1p_cHtbIm_0p_cHt_0p'
p24
I7
sS'ctGRe_0p_ctGIm_0p_ctWRe_2p_ctWIm_0p_ctBRe_0p_ctBIm_0p_cHtbRe_0p_cHtbIm_0p_cHt_0p'
p25
I27
sS'ctGRe_0p_ctGIm_0p_ctWRe_0p_ctWIm_0p_ctBRe_0p_ctBIm_0p_cHtbRe_0p_cHtbIm_1p_cHt_0p'
p26
I8
sS'ctGRe_0p_ctGIm_2p_ctWRe_0p_ctWIm_0p_ctBRe_0p_ctBIm_0p_cHtbRe_0p_cHtbIm_0p_cHt_0p'
p27
I19
sS'ctGRe_0p_ctGIm_0p_ctWRe_0p_ctWIm_0p_ctBRe_0p_ctBIm_0p_cHtbRe_1p_cHtbIm_1p_cHt_0p'
p28
I50
sS'ctGRe_1p_ctGIm_0p_ctWRe_0p_ctWIm_0p_ctBRe_0p_ctBIm_0p_cHtbRe_0p_cHtbIm_1p_cHt_0p'
p29
I17
sS'ctGRe_0p_ctGIm_1p_ctWRe_0p_ctWIm_1p_ctBRe_0p_ctBIm_0p_cHtbRe_0p_cHtbIm_0p_cHt_0p'
p30
I21
sS'ctGRe_1p_ctGIm_0p_ctWRe_0p_ctWIm_0p_ctBRe_0p_ctBIm_0p_cHtbRe_1p_cHtbIm_0p_cHt_0p'
p31
I16
sS'ctGRe_0p_ctGIm_1p_ctWRe_0p_ctWIm_0p_ctBRe_0p_ctBIm_0p_cHtbRe_0p_cHtbIm_0p_cHt_1p'
p32
I26
sS'ctGRe_0p_ctGIm_0p_ctWRe_0p_ctWIm_1p_ctBRe_0p_ctBIm_1p_cHtbRe_0p_cHtbIm_0p_cHt_0p'
p33
I36
sS'ctGRe_1p_ctGIm_0p_ctWRe_0p_ctWIm_1p_ctBRe_0p_ctBIm_0p_cHtbRe_0p_cHtbIm_0p_cHt_0p'
p34
I13
sS'ctGRe_1p_ctGIm_0p_ctWRe_0p_ctWIm_0p_ctBRe_0p_ctBIm_0p_cHtbRe_0p_cHtbIm_0p_cHt_1p'
p35
I18
sS'ctGRe_1p_ctGIm_0p_ctWRe_0p_ctWIm_0p_ctBRe_0p_ctBIm_1p_cHtbRe_0p_cHtbIm_0p_cHt_0p'
p36
I15
sS'ctGRe_0p_ctGIm_0p_ctWRe_0p_ctWIm_0p_ctBRe_1p_ctBIm_0p_cHtbRe_0p_cHtbIm_0p_cHt_0p'
p37
I5
sS'ctGRe_0p_ctGIm_0p_ctWRe_1p_ctWIm_1p_ctBRe_0p_ctBIm_0p_cHtbRe_0p_cHtbIm_0p_cHt_0p'
p38
I28
sS'ctGRe_0p_ctGIm_0p_ctWRe_0p_ctWIm_0p_ctBRe_0p_ctBIm_1p_cHtbRe_0p_cHtbIm_1p_cHt_0p'
p39
I47
sS'ctGRe_0p_ctGIm_0p_ctWRe_1p_ctWIm_0p_ctBRe_0p_ctBIm_0p_cHtbRe_0p_cHtbIm_0p_cHt_0p'
p40
I3
sS'ctGRe_0p_ctGIm_0p_ctWRe_0p_ctWIm_0p_ctBRe_0p_ctBIm_1p_cHtbRe_0p_cHtbIm_0p_cHt_1p'
p41
I48
sS'ctGRe_0p_ctGIm_0p_ctWRe_0p_ctWIm_0p_ctBRe_2p_ctBIm_0p_cHtbRe_0p_cHtbIm_0p_cHt_0p'
p42
I40
sS'ctGRe_0p_ctGIm_1p_ctWRe_0p_ctWIm_0p_ctBRe_0p_ctBIm_0p_cHtbRe_1p_cHtbIm_0p_cHt_0p'
p43
I24
sS'ctGRe_0p_ctGIm_0p_ctWRe_0p_ctWIm_1p_ctBRe_1p_ctBIm_0p_cHtbRe_0p_cHtbIm_0p_cHt_0p'
p44
I35
sS'ctGRe_0p_ctGIm_0p_ctWRe_0p_ctWIm_0p_ctBRe_1p_ctBIm_0p_cHtbRe_0p_cHtbIm_0p_cHt_1p'
p45
I44
sS'ctGRe_0p_ctGIm_0p_ctWRe_0p_ctWIm_0p_ctBRe_0p_ctBIm_0p_cHtbRe_0p_cHtbIm_2p_cHt_0p'
p46
I52
sS'ctGRe_1p_ctGIm_0p_ctWRe_0p_ctWIm_0p_ctBRe_1p_ctBIm_0p_cHtbRe_0p_cHtbIm_0p_cHt_0p'
p47
I14
sS'ctGRe_0p_ctGIm_0p_ctWRe_1p_ctWIm_0p_ctBRe_0p_ctBIm_0p_cHtbRe_0p_cHtbIm_1p_cHt_0p'
p48
I32
sS'ctGRe_0p_ctGIm_0p_ctWRe_0p_ctWIm_0p_ctBRe_0p_ctBIm_0p_cHtbRe_0p_cHtbIm_0p_cHt_1p'
p49
I9
sS'ctGRe_0p_ctGIm_0p_ctWRe_1p_ctWIm_0p_ctBRe_0p_ctBIm_0p_cHtbRe_1p_cHtbIm_0p_cHt_0p'
p50
I31
sS'ctGRe_0p_ctGIm_0p_ctWRe_0p_ctWIm_1p_ctBRe_0p_ctBIm_0p_cHtbRe_0p_cHtbIm_0p_cHt_1p'
p51
I39
sS'ctGRe_0p_ctGIm_0p_ctWRe_0p_ctWIm_0p_ctBRe_0p_ctBIm_0p_cHtbRe_1p_cHtbIm_0p_cHt_1p'
p52
I51
sS'ctGRe_0p_ctGIm_0p_ctWRe_0p_ctWIm_1p_ctBRe_0p_ctBIm_0p_cHtbRe_0p_cHtbIm_1p_cHt_0p'
p53
I38
sS'ctGRe_0p_ctGIm_0p_ctWRe_0p_ctWIm_0p_ctBRe_0p_ctBIm_0p_cHtbRe_0p_cHtbIm_1p_cHt_1p'
p54
I53
sS'ctGRe_0p_ctGIm_0p_ctWRe_0p_ctWIm_1p_ctBRe_0p_ctBIm_0p_cHtbRe_1p_cHtbIm_0p_cHt_0p'
p55
I37
sS'ctGRe_0p_ctGIm_1p_ctWRe_0p_ctWIm_0p_ctBRe_0p_ctBIm_0p_cHtbRe_0p_cHtbIm_1p_cHt_0p'
p56
I25
sS'ctGRe_0p_ctGIm_0p_ctWRe_0p_ctWIm_0p_ctBRe_1p_ctBIm_0p_cHtbRe_0p_cHtbIm_1p_cHt_0p'
p57
I43
sS'ctGRe_0p_ctGIm_1p_ctWRe_0p_ctWIm_0p_ctBRe_0p_ctBIm_1p_cHtbRe_0p_cHtbIm_0p_cHt_0p'
p58
I23
sS'ctGRe_0p_ctGIm_0p_ctWRe_0p_ctWIm_1p_ctBRe_0p_ctBIm_0p_cHtbRe_0p_cHtbIm_0p_cHt_0p'
p59
I4
ssS'order'
p60
(dp61
g60
I2
ss.