(dp0
S'OriginalConfig'
p1
ccopy_reg
_reconstructor
p2
(cWMCore.Configuration
Configuration
p3
c__builtin__
object
p4
Ntp5
Rp6
(dp7
S'Site'
p8
g2
(cWMCore.Configuration
ConfigSection
p9
g4
Ntp10
Rp11
(dp12
S'_internal_skipChecks'
p13
I00
sS'_internal_documentation'
p14
S''
p15
sS'_internal_settings'
p16
c__builtin__
set
p17
((lp18
S'storageSite'
p19
atp20
Rp21
sS'_internal_name'
p22
g8
sS'_internal_docstrings'
p23
(dp24
sS'_internal_children'
p25
g17
((lp26
tp27
Rp28
sg19
S'T2_DE_DESY'
p29
sS'_internal_parent_ref'
p30
NsbsS'_internal_sections'
p31
(lp32
S'General'
p33
aS'JobType'
p34
aS'Data'
p35
ag8
aS'User'
p36
asg36
g2
(g9
g4
Ntp37
Rp38
(dp39
g13
I00
sg14
g15
sg16
g17
((lp40
tp41
Rp42
sg22
g36
sg23
(dp43
sg25
g17
((lp44
tp45
Rp46
sg30
Nsbsg33
g2
(g9
g4
Ntp47
Rp48
(dp49
S'transferLogs'
p50
I01
sg13
I00
sg14
g15
sg16
g17
((lp51
g50
aS'workArea'
p52
aS'requestName'
p53
atp54
Rp55
sg22
g33
sg23
(dp56
sg25
g17
((lp57
tp58
Rp59
sg53
S'TT01j1lCA_HT500'
p60
sg30
Nsg52
S'crab_TT01j1lCA_HT500'
p61
sbsg35
g2
(g9
g4
Ntp62
Rp63
(dp64
S'outputDatasetTag'
p65
g60
sS'publishDBS'
p66
S'phys03'
p67
sg13
I00
sS'unitsPerJob'
p68
I2500
sg14
g15
sg16
g17
((lp69
g65
ag66
aS'publication'
p70
ag68
aS'splitting'
p71
aS'outputPrimaryDataset'
p72
aS'totalUnits'
p73
atp74
Rp75
sg22
g35
sg71
S'EventBased'
p76
sg23
(dp77
sg25
g17
((lp78
tp79
Rp80
sg70
I01
sg72
g60
sg30
Nsg73
I1000000
sbsg34
g2
(g9
g4
Ntp81
Rp82
(dp83
g13
I00
sS'pyCfgParams'
p84
(lp85
S'gridpack=../TT01j1lCA_HT500_slc7_amd64_gcc700_CMSSW_10_6_19_tarball.tar.xz'
p86
asg14
g15
sg16
g17
((lp87
S'maxMemoryMB'
p88
aS'disableAutomaticOutputCollection'
p89
ag84
aS'pluginName'
p90
aS'allowUndistributedCMSSW'
p91
aS'psetName'
p92
aS'inputFiles'
p93
atp94
Rp95
sg22
g34
sg23
(dp96
sg90
S'PrivateMC'
p97
sg25
g17
((lp98
tp99
Rp100
sg91
I01
sg92
S'nanogen_cfg.py'
p101
sg30
Nsg93
(lp102
S'/nfs/dust/cms/user/beozek/EFT/CMSSW_10_6_27/src/EFT_gen_old/EFT_samples/scripts_plots_new_samples/input_files/CA/TT01j1lCA_HT500_slc7_amd64_gcc700_CMSSW_10_6_19_tarball.tar.xz'
p103
asg89
I00
sg88
I3500
sbsbsS'voGroup'
p104
g15
sS'Server'
p105
S'cmsweb.cern.ch'
p106
sS'instance'
p107
S'prod'
p108
sS'RequestName'
p109
V231004_031621:beozek_crab_TT01j1lCA_HT500
p110
sS'voRole'
p111
S'NULL'
p112
sS'Port'
p113
g15
s.